target datalayout = "e-m:e-p270:32:32-p271:32:32-p272:64:64-i64:64-i128:128-f80:128-n8:16:32:64-S128"
target triple = "x86_64-pc-linux-gnu"

@.str = private unnamed_addr constant [2 x i8] c"p\00", align 1
@.str.1 = private unnamed_addr constant [11 x i8] c"listpack.c\00", align 1

; Function Attrs: inlinehint nounwind uwtable
define internal ptr @lpGetWithBuf(ptr noundef %0, ptr noundef %1, ptr noundef %2) #6 {
  %4 = alloca ptr, align 8
  %5 = alloca ptr, align 8
  %6 = alloca ptr, align 8
  %7 = alloca ptr, align 8
  %8 = alloca i64, align 8
  %9 = alloca i64, align 8
  %10 = alloca i64, align 8
  %11 = alloca i64, align 8
  %12 = alloca i8, align 1
  %13 = alloca i32, align 4
  store ptr %0, ptr %5, align 8, !tbaa !5
  store ptr %1, ptr %6, align 8, !tbaa !13
  store ptr %2, ptr %7, align 8, !tbaa !5
  call void @llvm.lifetime.start.p0(i64 8, ptr %8) #10
  call void @llvm.lifetime.start.p0(i64 8, ptr %9) #10
  call void @llvm.lifetime.start.p0(i64 8, ptr %10) #10
  call void @llvm.lifetime.start.p0(i64 8, ptr %11) #10
  %14 = load ptr, ptr %5, align 8, !tbaa !5
  %15 = icmp ne ptr %14, null
  %16 = xor i1 %15, true
  %17 = xor i1 %16, true
  %18 = zext i1 %17 to i32
  %19 = sext i32 %18 to i64
  %20 = call i64 @llvm.expect.i64(i64 %19, i64 1)
  %21 = icmp ne i64 %20, 0
  br i1 %21, label %22, label %23

22:                                               ; preds = %3
  br label %25

23:                                               ; preds = %3
  call void @_serverAssert(ptr noundef @.str, ptr noundef @.str.1, i32 noundef 688)
  call void @abort() #11
  unreachable

24:                                               ; No predecessors!
  br label %25

25:                                               ; preds = %24, %22
  call void @llvm.lifetime.start.p0(i64 1, ptr %12) #10
  %26 = load ptr, ptr %5, align 8, !tbaa !5
  %27 = getelementptr inbounds i8, ptr %26, i64 0
  %28 = load i8, ptr %27, align 1, !tbaa !12
  store i8 %28, ptr %12, align 1, !tbaa !12
  %29 = load i8, ptr %12, align 1, !tbaa !12
  %30 = zext i8 %29 to i32
  %31 = and i32 %30, 192
  %32 = icmp eq i32 %31, 128
  br i1 %32, label %33, label %43

33:                                               ; preds = %25
  %34 = load ptr, ptr %5, align 8, !tbaa !5
  %35 = getelementptr inbounds i8, ptr %34, i64 0
  %36 = load i8, ptr %35, align 1, !tbaa !12
  %37 = zext i8 %36 to i32
  %38 = and i32 %37, 63
  %39 = sext i32 %38 to i64
  %40 = load ptr, ptr %6, align 8, !tbaa !13
  store i64 %39, ptr %40, align 8, !tbaa !10
  %41 = load ptr, ptr %5, align 8, !tbaa !5
  %42 = getelementptr inbounds i8, ptr %41, i64 1
  store ptr %42, ptr %4, align 8
  store i32 1, ptr %13, align 4
  br label %277

43:                                               ; preds = %25
  %44 = load i8, ptr %12, align 1, !tbaa !12
  %45 = zext i8 %44 to i32
  %46 = and i32 %45, 240
  %47 = icmp eq i32 %46, 224
  br i1 %47, label %48, label %64

48:                                               ; preds = %43
  %49 = load ptr, ptr %5, align 8, !tbaa !5
  %50 = getelementptr inbounds i8, ptr %49, i64 0
  %51 = load i8, ptr %50, align 1, !tbaa !12
  %52 = zext i8 %51 to i32
  %53 = and i32 %52, 15
  %54 = shl i32 %53, 8
  %55 = load ptr, ptr %5, align 8, !tbaa !5
  %56 = getelementptr inbounds i8, ptr %55, i64 1
  %57 = load i8, ptr %56, align 1, !tbaa !12
  %58 = zext i8 %57 to i32
  %59 = or i32 %54, %58
  %60 = sext i32 %59 to i64
  %61 = load ptr, ptr %6, align 8, !tbaa !13
  store i64 %60, ptr %61, align 8, !tbaa !10
  %62 = load ptr, ptr %5, align 8, !tbaa !5
  %63 = getelementptr inbounds i8, ptr %62, i64 2
  store ptr %63, ptr %4, align 8
  store i32 1, ptr %13, align 4
  br label %277

64:                                               ; preds = %43
  %65 = load i8, ptr %12, align 1, !tbaa !12
  %66 = zext i8 %65 to i32
  %67 = and i32 %66, 255
  %68 = icmp eq i32 %67, 240
  br i1 %68, label %69, label %97

69:                                               ; preds = %64
  %70 = load ptr, ptr %5, align 8, !tbaa !5
  %71 = getelementptr inbounds i8, ptr %70, i64 1
  %72 = load i8, ptr %71, align 1, !tbaa !12
  %73 = zext i8 %72 to i32
  %74 = shl i32 %73, 0
  %75 = load ptr, ptr %5, align 8, !tbaa !5
  %76 = getelementptr inbounds i8, ptr %75, i64 2
  %77 = load i8, ptr %76, align 1, !tbaa !12
  %78 = zext i8 %77 to i32
  %79 = shl i32 %78, 8
  %80 = or i32 %74, %79
  %81 = load ptr, ptr %5, align 8, !tbaa !5
  %82 = getelementptr inbounds i8, ptr %81, i64 3
  %83 = load i8, ptr %82, align 1, !tbaa !12
  %84 = zext i8 %83 to i32
  %85 = shl i32 %84, 16
  %86 = or i32 %80, %85
  %87 = load ptr, ptr %5, align 8, !tbaa !5
  %88 = getelementptr inbounds i8, ptr %87, i64 4
  %89 = load i8, ptr %88, align 1, !tbaa !12
  %90 = zext i8 %89 to i32
  %91 = shl i32 %90, 24
  %92 = or i32 %86, %91
  %93 = zext i32 %92 to i64
  %94 = load ptr, ptr %6, align 8, !tbaa !13
  store i64 %93, ptr %94, align 8, !tbaa !10
  %95 = load ptr, ptr %5, align 8, !tbaa !5
  %96 = getelementptr inbounds i8, ptr %95, i64 5
  store ptr %96, ptr %4, align 8
  store i32 1, ptr %13, align 4
  br label %277

97:                                               ; preds = %64
  %98 = load i8, ptr %12, align 1, !tbaa !12
  %99 = zext i8 %98 to i32
  %100 = and i32 %99, 128
  %101 = icmp eq i32 %100, 0
  br i1 %101, label %102, label %107

102:                                              ; preds = %97
  store i64 -1, ptr %10, align 8, !tbaa !10
  store i64 0, ptr %11, align 8, !tbaa !10
  %103 = load i8, ptr %12, align 1, !tbaa !12
  %104 = zext i8 %103 to i32
  %105 = and i32 %104, 127
  %106 = sext i32 %105 to i64
  store i64 %106, ptr %9, align 8, !tbaa !10
  br label %250

107:                                              ; preds = %97
  %108 = load i8, ptr %12, align 1, !tbaa !12
  %109 = zext i8 %108 to i32
  %110 = and i32 %109, 224
  %111 = icmp eq i32 %110, 192
  br i1 %111, label %112, label %123

112:                                              ; preds = %107
  %113 = load i8, ptr %12, align 1, !tbaa !12
  %114 = zext i8 %113 to i32
  %115 = and i32 %114, 31
  %116 = shl i32 %115, 8
  %117 = load ptr, ptr %5, align 8, !tbaa !5
  %118 = getelementptr inbounds i8, ptr %117, i64 1
  %119 = load i8, ptr %118, align 1, !tbaa !12
  %120 = zext i8 %119 to i32
  %121 = or i32 %116, %120
  %122 = sext i32 %121 to i64
  store i64 %122, ptr %9, align 8, !tbaa !10
  store i64 4096, ptr %10, align 8, !tbaa !10
  store i64 8191, ptr %11, align 8, !tbaa !10
  br label %249

123:                                              ; preds = %107
  %124 = load i8, ptr %12, align 1, !tbaa !12
  %125 = zext i8 %124 to i32
  %126 = and i32 %125, 255
  %127 = icmp eq i32 %126, 241
  br i1 %127, label %128, label %139

128:                                              ; preds = %123
  %129 = load ptr, ptr %5, align 8, !tbaa !5
  %130 = getelementptr inbounds i8, ptr %129, i64 1
  %131 = load i8, ptr %130, align 1, !tbaa !12
  %132 = zext i8 %131 to i64
  %133 = load ptr, ptr %5, align 8, !tbaa !5
  %134 = getelementptr inbounds i8, ptr %133, i64 2
  %135 = load i8, ptr %134, align 1, !tbaa !12
  %136 = zext i8 %135 to i64
  %137 = shl i64 %136, 8
  %138 = or i64 %132, %137
  store i64 %138, ptr %9, align 8, !tbaa !10
  store i64 32768, ptr %10, align 8, !tbaa !10
  store i64 65535, ptr %11, align 8, !tbaa !10
  br label %248

139:                                              ; preds = %123
  %140 = load i8, ptr %12, align 1, !tbaa !12
  %141 = zext i8 %140 to i32
  %142 = and i32 %141, 255
  %143 = icmp eq i32 %142, 242
  br i1 %143, label %144, label %161

144:                                              ; preds = %139
  %145 = load ptr, ptr %5, align 8, !tbaa !5
  %146 = getelementptr inbounds i8, ptr %145, i64 1
  %147 = load i8, ptr %146, align 1, !tbaa !12
  %148 = zext i8 %147 to i64
  %149 = load ptr, ptr %5, align 8, !tbaa !5
  %150 = getelementptr inbounds i8, ptr %149, i64 2
  %151 = load i8, ptr %150, align 1, !tbaa !12
  %152 = zext i8 %151 to i64
  %153 = shl i64 %152, 8
  %154 = or i64 %148, %153
  %155 = load ptr, ptr %5, align 8, !tbaa !5
  %156 = getelementptr inbounds i8, ptr %155, i64 3
  %157 = load i8, ptr %156, align 1, !tbaa !12
  %158 = zext i8 %157 to i64
  %159 = shl i64 %158, 16
  %160 = or i64 %154, %159
  store i64 %160, ptr %9, align 8, !tbaa !10
  store i64 8388608, ptr %10, align 8, !tbaa !10
  store i64 16777215, ptr %11, align 8, !tbaa !10
  br label %247

161:                                              ; preds = %139
  %162 = load i8, ptr %12, align 1, !tbaa !12
  %163 = zext i8 %162 to i32
  %164 = and i32 %163, 255
  %165 = icmp eq i32 %164, 243
  br i1 %165, label %166, label %189

166:                                              ; preds = %161
  %167 = load ptr, ptr %5, align 8, !tbaa !5
  %168 = getelementptr inbounds i8, ptr %167, i64 1
  %169 = load i8, ptr %168, align 1, !tbaa !12
  %170 = zext i8 %169 to i64
  %171 = load ptr, ptr %5, align 8, !tbaa !5
  %172 = getelementptr inbounds i8, ptr %171, i64 2
  %173 = load i8, ptr %172, align 1, !tbaa !12
  %174 = zext i8 %173 to i64
  %175 = shl i64 %174, 8
  %176 = or i64 %170, %175
  %177 = load ptr, ptr %5, align 8, !tbaa !5
  %178 = getelementptr inbounds i8, ptr %177, i64 3
  %179 = load i8, ptr %178, align 1, !tbaa !12
  %180 = zext i8 %179 to i64
  %181 = shl i64 %180, 16
  %182 = or i64 %176, %181
  %183 = load ptr, ptr %5, align 8, !tbaa !5
  %184 = getelementptr inbounds i8, ptr %183, i64 4
  %185 = load i8, ptr %184, align 1, !tbaa !12
  %186 = zext i8 %185 to i64
  %187 = shl i64 %186, 24
  %188 = or i64 %182, %187
  store i64 %188, ptr %9, align 8, !tbaa !10
  store i64 2147483648, ptr %10, align 8, !tbaa !10
  store i64 4294967295, ptr %11, align 8, !tbaa !10
  br label %246

189:                                              ; preds = %161
  %190 = load i8, ptr %12, align 1, !tbaa !12
  %191 = zext i8 %190 to i32
  %192 = and i32 %191, 255
  %193 = icmp eq i32 %192, 244
  br i1 %193, label %194, label %241

194:                                              ; preds = %189
  %195 = load ptr, ptr %5, align 8, !tbaa !5
  %196 = getelementptr inbounds i8, ptr %195, i64 1
  %197 = load i8, ptr %196, align 1, !tbaa !12
  %198 = zext i8 %197 to i64
  %199 = load ptr, ptr %5, align 8, !tbaa !5
  %200 = getelementptr inbounds i8, ptr %199, i64 2
  %201 = load i8, ptr %200, align 1, !tbaa !12
  %202 = zext i8 %201 to i64
  %203 = shl i64 %202, 8
  %204 = or i64 %198, %203
  %205 = load ptr, ptr %5, align 8, !tbaa !5
  %206 = getelementptr inbounds i8, ptr %205, i64 3
  %207 = load i8, ptr %206, align 1, !tbaa !12
  %208 = zext i8 %207 to i64
  %209 = shl i64 %208, 16
  %210 = or i64 %204, %209
  %211 = load ptr, ptr %5, align 8, !tbaa !5
  %212 = getelementptr inbounds i8, ptr %211, i64 4
  %213 = load i8, ptr %212, align 1, !tbaa !12
  %214 = zext i8 %213 to i64
  %215 = shl i64 %214, 24
  %216 = or i64 %210, %215
  %217 = load ptr, ptr %5, align 8, !tbaa !5
  %218 = getelementptr inbounds i8, ptr %217, i64 5
  %219 = load i8, ptr %218, align 1, !tbaa !12
  %220 = zext i8 %219 to i64
  %221 = shl i64 %220, 32
  %222 = or i64 %216, %221
  %223 = load ptr, ptr %5, align 8, !tbaa !5
  %224 = getelementptr inbounds i8, ptr %223, i64 6
  %225 = load i8, ptr %224, align 1, !tbaa !12
  %226 = zext i8 %225 to i64
  %227 = shl i64 %226, 40
  %228 = or i64 %222, %227
  %229 = load ptr, ptr %5, align 8, !tbaa !5
  %230 = getelementptr inbounds i8, ptr %229, i64 7
  %231 = load i8, ptr %230, align 1, !tbaa !12
  %232 = zext i8 %231 to i64
  %233 = shl i64 %232, 48
  %234 = or i64 %228, %233
  %235 = load ptr, ptr %5, align 8, !tbaa !5
  %236 = getelementptr inbounds i8, ptr %235, i64 8
  %237 = load i8, ptr %236, align 1, !tbaa !12
  %238 = zext i8 %237 to i64
  %239 = shl i64 %238, 56
  %240 = or i64 %234, %239
  store i64 %240, ptr %9, align 8, !tbaa !10
  store i64 -9223372036854775808, ptr %10, align 8, !tbaa !10
  store i64 -1, ptr %11, align 8, !tbaa !10
  br label %245

241:                                              ; preds = %189
  %242 = load i8, ptr %12, align 1, !tbaa !12
  %243 = zext i8 %242 to i64
  %244 = add i64 12345678900000000, %243
  store i64 %244, ptr %9, align 8, !tbaa !10
  store i64 -1, ptr %10, align 8, !tbaa !10
  store i64 0, ptr %11, align 8, !tbaa !10
  br label %245

245:                                              ; preds = %241, %194
  br label %246

246:                                              ; preds = %245, %166
  br label %247

247:                                              ; preds = %246, %144
  br label %248

248:                                              ; preds = %247, %128
  br label %249

249:                                              ; preds = %248, %112
  br label %250

250:                                              ; preds = %249, %102
  %251 = load i64, ptr %9, align 8, !tbaa !10
  %252 = load i64, ptr %10, align 8, !tbaa !10
  %253 = icmp uge i64 %251, %252
  br i1 %253, label %254, label %262

254:                                              ; preds = %250
  %255 = load i64, ptr %11, align 8, !tbaa !10
  %256 = load i64, ptr %9, align 8, !tbaa !10
  %257 = sub i64 %255, %256
  store i64 %257, ptr %9, align 8, !tbaa !10
  %258 = load i64, ptr %9, align 8, !tbaa !10
  store i64 %258, ptr %8, align 8, !tbaa !10
  %259 = load i64, ptr %8, align 8, !tbaa !10
  %260 = sub nsw i64 0, %259
  %261 = sub nsw i64 %260, 1
  store i64 %261, ptr %8, align 8, !tbaa !10
  br label %264

262:                                              ; preds = %250
  %263 = load i64, ptr %9, align 8, !tbaa !10
  store i64 %263, ptr %8, align 8, !tbaa !10
  br label %264

264:                                              ; preds = %262, %254
  %265 = load ptr, ptr %7, align 8, !tbaa !5
  %266 = icmp ne ptr %265, null
  br i1 %266, label %267, label %274

267:                                              ; preds = %264
  %268 = load ptr, ptr %7, align 8, !tbaa !5
  %269 = load i64, ptr %8, align 8, !tbaa !10
  %270 = call i32 @ll2string(ptr noundef %268, i64 noundef 21, i64 noundef %269)
  %271 = sext i32 %270 to i64
  %272 = load ptr, ptr %6, align 8, !tbaa !13
  store i64 %271, ptr %272, align 8, !tbaa !10
  %273 = load ptr, ptr %7, align 8, !tbaa !5
  store ptr %273, ptr %4, align 8
  store i32 1, ptr %13, align 4
  br label %277

274:                                              ; preds = %264
  %275 = load i64, ptr %8, align 8, !tbaa !10
  %276 = load ptr, ptr %6, align 8, !tbaa !13
  store i64 %275, ptr %276, align 8, !tbaa !10
  store ptr null, ptr %4, align 8
  store i32 1, ptr %13, align 4
  br label %277

277:                                              ; preds = %274, %267, %69, %48, %33
  call void @llvm.lifetime.end.p0(i64 1, ptr %12) #10
  call void @llvm.lifetime.end.p0(i64 8, ptr %11) #10
  call void @llvm.lifetime.end.p0(i64 8, ptr %10) #10
  call void @llvm.lifetime.end.p0(i64 8, ptr %9) #10
  call void @llvm.lifetime.end.p0(i64 8, ptr %8) #10
  %278 = load ptr, ptr %4, align 8
  ret ptr %278
}

; Function Attrs: nounwind uwtable
define dso_local ptr @lpGet(ptr noundef %0, ptr noundef %1, ptr noundef %2) #0 {
  %4 = alloca ptr, align 8
  %5 = alloca ptr, align 8
  %6 = alloca ptr, align 8
  store ptr %0, ptr %4, align 8, !tbaa !5
  store ptr %1, ptr %5, align 8, !tbaa !13
  store ptr %2, ptr %6, align 8, !tbaa !5
  %7 = load ptr, ptr %4, align 8, !tbaa !5
  %8 = load ptr, ptr %5, align 8, !tbaa !13
  %9 = load ptr, ptr %6, align 8, !tbaa !5
  %10 = call ptr @lpGetWithBuf(ptr noundef %7, ptr noundef %8, ptr noundef %9)
  ret ptr %10
}