; Function Attrs: nounwind uwtable
define dso_local ptr @lpGet(ptr noundef readonly captures(address_is_null, ret: address, provenance) %0, ptr noundef writeonly captures(none) %1, ptr noundef %2) local_unnamed_addr #3 {
  %.not.i = icmp eq ptr %0, null
  br i1 %.not.i, label %4, label %5, !prof !12

4:                                                ; preds = %3
  tail call void @_serverAssert(ptr noundef nonnull @.str, ptr noundef nonnull @.str.1, i32 noundef 688) #20
  tail call void @abort() #21
  unreachable

5:                                                ; preds = %3
  %6 = load i8, ptr %0, align 1, !tbaa !5
  %7 = zext i8 %6 to i32
  %8 = and i32 %7, 192
  %9 = icmp eq i32 %8, 128
  br i1 %9, label %10, label %14

10:                                               ; preds = %5
  %11 = and i32 %7, 63
  %12 = zext nneg i32 %11 to i64
  store i64 %12, ptr %1, align 8, !tbaa !10
  %13 = getelementptr inbounds nuw i8, ptr %0, i64 1
  br label %lpGetWithBuf.exit

14:                                               ; preds = %5
  %15 = and i32 %7, 240
  %16 = icmp eq i32 %15, 224
  br i1 %16, label %17, label %26

17:                                               ; preds = %14
  %18 = shl nuw nsw i32 %7, 8
  %19 = and i32 %18, 3840
  %20 = getelementptr inbounds nuw i8, ptr %0, i64 1
  %21 = load i8, ptr %20, align 1, !tbaa !5
  %22 = zext i8 %21 to i32
  %23 = or disjoint i32 %19, %22
  %24 = zext nneg i32 %23 to i64
  store i64 %24, ptr %1, align 8, !tbaa !10
  %25 = getelementptr inbounds nuw i8, ptr %0, i64 2
  br label %lpGetWithBuf.exit

26:                                               ; preds = %14
  %27 = icmp eq i8 %6, -16
  br i1 %27, label %28, label %33

28:                                               ; preds = %26
  %29 = getelementptr inbounds nuw i8, ptr %0, i64 1
  %30 = load i32, ptr %29, align 1
  %31 = zext i32 %30 to i64
  store i64 %31, ptr %1, align 8, !tbaa !10
  %32 = getelementptr inbounds nuw i8, ptr %0, i64 5
  br label %lpGetWithBuf.exit

33:                                               ; preds = %26
  %34 = icmp sgt i8 %6, -1
  br i1 %34, label %35, label %37

35:                                               ; preds = %33
  %36 = zext nneg i8 %6 to i64
  br label %72

37:                                               ; preds = %33
  %38 = and i32 %7, 224
  %39 = icmp eq i32 %38, 192
  br i1 %39, label %40, label %48

40:                                               ; preds = %37
  %41 = shl nuw nsw i32 %7, 8
  %42 = and i32 %41, 7936
  %43 = getelementptr inbounds nuw i8, ptr %0, i64 1
  %44 = load i8, ptr %43, align 1, !tbaa !5
  %45 = zext i8 %44 to i32
  %46 = or disjoint i32 %42, %45
  %47 = zext nneg i32 %46 to i64
  br label %72

48:                                               ; preds = %37
  switch i8 %6, label %69 [
    i8 -15, label %49
    i8 -14, label %53
    i8 -13, label %62
    i8 -12, label %66
  ]

49:                                               ; preds = %48
  %50 = getelementptr inbounds nuw i8, ptr %0, i64 1
  %51 = load i16, ptr %50, align 1
  %52 = zext i16 %51 to i64
  br label %72

53:                                               ; preds = %48
  %54 = getelementptr inbounds nuw i8, ptr %0, i64 1
  %55 = load i16, ptr %54, align 1
  %56 = zext i16 %55 to i64
  %57 = getelementptr inbounds nuw i8, ptr %0, i64 3
  %58 = load i8, ptr %57, align 1, !tbaa !5
  %59 = zext i8 %58 to i64
  %60 = shl nuw nsw i64 %59, 16
  %61 = or disjoint i64 %60, %56
  br label %72

62:                                               ; preds = %48
  %63 = getelementptr inbounds nuw i8, ptr %0, i64 1
  %64 = load i32, ptr %63, align 1
  %65 = zext i32 %64 to i64
  br label %72

66:                                               ; preds = %48
  %67 = getelementptr inbounds nuw i8, ptr %0, i64 1
  %68 = load i64, ptr %67, align 1
  br label %72

69:                                               ; preds = %48
  %70 = zext i8 %6 to i64
  %71 = or disjoint i64 %70, 12345678900000000
  br label %72

72:                                               ; preds = %69, %66, %62, %53, %49, %40, %35
  %.061.i = phi i64 [ %36, %35 ], [ %47, %40 ], [ %52, %49 ], [ %61, %53 ], [ %65, %62 ], [ %68, %66 ], [ %71, %69 ]
  %.060.i = phi i64 [ -1, %35 ], [ 4096, %40 ], [ 32768, %49 ], [ 8388608, %53 ], [ 2147483648, %62 ], [ -9223372036854775808, %66 ], [ -1, %69 ]
  %.059.neg.i = phi i64 [ 0, %35 ], [ -8191, %40 ], [ -65535, %49 ], [ -16777215, %53 ], [ -4294967295, %62 ], [ 1, %66 ], [ 0, %69 ]
  %.not66.i = icmp ult i64 %.061.i, %.060.i
  %.neg.i = add i64 %.061.i, -1
  %73 = add i64 %.neg.i, %.059.neg.i
  %.062.i = select i1 %.not66.i, i64 %.061.i, i64 %73
  %.not67.i = icmp eq ptr %2, null
  br i1 %.not67.i, label %77, label %74

74:                                               ; preds = %72
  %75 = tail call i32 @ll2string(ptr noundef nonnull %2, i64 noundef 21, i64 noundef %.062.i) #20
  %76 = sext i32 %75 to i64
  store i64 %76, ptr %1, align 8, !tbaa !10
  br label %lpGetWithBuf.exit

77:                                               ; preds = %72
  store i64 %.062.i, ptr %1, align 8, !tbaa !10
  br label %lpGetWithBuf.exit

lpGetWithBuf.exit:                                ; preds = %10, %17, %28, %74, %77
  %.0.i = phi ptr [ %13, %10 ], [ %25, %17 ], [ %32, %28 ], [ %2, %74 ], [ null, %77 ]
  ret ptr %.0.i
}